; Function Attrs: mustprogress uwtable
define dso_local noundef i32 @_ZN11HullLibrary13ReleaseResultER10HullResult(ptr noundef nonnull readnone align 8 captures(none) dereferenceable(64) %0, ptr noundef nonnull align 8 captures(none) dereferenceable(80) %1) local_unnamed_addr #4 align 2 {
  %3 = getelementptr inbounds nuw i8, ptr %1, i64 12
  %4 = load i32, ptr %3, align 4, !tbaa !20
  %.not = icmp eq i32 %4, 0
  br i1 %.not, label %16, label %5

5:                                                ; preds = %2
  %6 = getelementptr inbounds nuw i8, ptr %1, i64 4
  store i32 0, ptr %6, align 4, !tbaa !114
  %7 = getelementptr inbounds nuw i8, ptr %1, i64 24
  %8 = load ptr, ptr %7, align 8, !tbaa !19
  %.not.i.i = icmp eq ptr %8, null
  br i1 %.not.i.i, label %_ZN20btAlignedObjectArrayI9btVector3E5clearEv.exit, label %9

9:                                                ; preds = %5
  %10 = getelementptr inbounds nuw i8, ptr %1, i64 32
  %11 = load i8, ptr %10, align 8, !tbaa !12, !range !39, !noundef !40
  %12 = trunc nuw i8 %11 to i1
  br i1 %12, label %13, label %_ZN20btAlignedObjectArrayI9btVector3E5clearEv.exit

13:                                               ; preds = %9
  tail call void @_Z21btAlignedFreeInternalPv(ptr noundef nonnull %8)
  br label %_ZN20btAlignedObjectArrayI9btVector3E5clearEv.exit

_ZN20btAlignedObjectArrayI9btVector3E5clearEv.exit: ; preds = %5, %9, %13
  %14 = getelementptr inbounds nuw i8, ptr %1, i64 32
  store i8 1, ptr %14, align 8, !tbaa !12
  store ptr null, ptr %7, align 8, !tbaa !19
  store i32 0, ptr %3, align 4, !tbaa !20
  %15 = getelementptr inbounds nuw i8, ptr %1, i64 16
  store i32 0, ptr %15, align 8, !tbaa !21
  br label %16

16:                                               ; preds = %_ZN20btAlignedObjectArrayI9btVector3E5clearEv.exit, %2
  %17 = getelementptr inbounds nuw i8, ptr %1, i64 52
  %18 = load i32, ptr %17, align 4, !tbaa !90
  %.not6 = icmp eq i32 %18, 0
  br i1 %.not6, label %30, label %19

19:                                               ; preds = %16
  %20 = getelementptr inbounds nuw i8, ptr %1, i64 44
  store i32 0, ptr %20, align 4, !tbaa !116
  %21 = getelementptr inbounds nuw i8, ptr %1, i64 64
  %22 = load ptr, ptr %21, align 8, !tbaa !94
  %.not.i.i7 = icmp eq ptr %22, null
  br i1 %.not.i.i7, label %_ZN20btAlignedObjectArrayIjE5clearEv.exit, label %23

23:                                               ; preds = %19
  %24 = getelementptr inbounds nuw i8, ptr %1, i64 72
  %25 = load i8, ptr %24, align 8, !tbaa !96, !range !39, !noundef !40
  %26 = trunc nuw i8 %25 to i1
  br i1 %26, label %27, label %_ZN20btAlignedObjectArrayIjE5clearEv.exit

27:                                               ; preds = %23
  tail call void @_Z21btAlignedFreeInternalPv(ptr noundef nonnull %22)
  br label %_ZN20btAlignedObjectArrayIjE5clearEv.exit

_ZN20btAlignedObjectArrayIjE5clearEv.exit:        ; preds = %19, %23, %27
  %28 = getelementptr inbounds nuw i8, ptr %1, i64 72
  store i8 1, ptr %28, align 8, !tbaa !96
  store ptr null, ptr %21, align 8, !tbaa !94
  store i32 0, ptr %17, align 4, !tbaa !90
  %29 = getelementptr inbounds nuw i8, ptr %1, i64 56
  store i32 0, ptr %29, align 8, !tbaa !93
  br label %30

30:                                               ; preds = %_ZN20btAlignedObjectArrayIjE5clearEv.exit, %16
  ret i32 0
}